; Function Attrs: mustprogress nofree norecurse nosync nounwind willreturn memory(read, argmem: write, inaccessiblemem: none) uwtable
define dso_local void @_ZN4Luau10CstStatForC2ENS_8PositionES1_St8optionalIS1_E(ptr noundef nonnull writeonly align 4 captures(none) dereferenceable(32) initializes((0, 29)) %0, i64 %1, i64 %2, i64 %3, i8 %4) unnamed_addr #4 align 2 {
  %6 = load i32, ptr @_ZN4Luau7CstRttiINS_10CstStatForEE5valueE, align 4, !tbaa !4
  store i32 %6, ptr %0, align 4, !tbaa !8
  %7 = getelementptr inbounds nuw i8, ptr %0, i64 4
  store i64 %1, ptr %7, align 4
  %8 = getelementptr inbounds nuw i8, ptr %0, i64 12
  store i64 %2, ptr %8, align 4
  %9 = getelementptr inbounds nuw i8, ptr %0, i64 20
  store i64 %3, ptr %9, align 4
  %.sroa.22.0..sroa_idx = getelementptr inbounds nuw i8, ptr %0, i64 28
  store i8 %4, ptr %.sroa.22.0..sroa_idx, align 4
  ret void
}